target datalayout = "e-m:e-p270:32:32-p271:32:32-p272:64:64-i64:64-i128:128-f80:128-n8:16:32:64-S128"
target triple = "x86_64-pc-linux-gnu"

%struct.hashmap = type { ptr, ptr, ptr, i32, i32, i32, i32, i8 }
%struct.repository = type { ptr, ptr, ptr, ptr, ptr, %struct.strmap, %struct.strmap, %struct.repo_path_cache, ptr, ptr, ptr, ptr, %struct.repo_settings, ptr, ptr, ptr, ptr, ptr, ptr, i32, i32, i32, ptr, ptr, i32, i32, i8 }
%struct.strmap = type { %struct.hashmap, ptr, i8 }
%struct.repo_path_cache = type { ptr, ptr, ptr, ptr, ptr, ptr, ptr }
%struct.repo_settings = type { i32, i32, i32, i32, i32, i32, i32, i32, i32, i32, i32, i32, ptr, i32, i32, i32, i32, i32, i32, i32, i64, i64, i64 }
%struct.parse_config_parameter = type { ptr, ptr, ptr, i32 }

; Function Attrs: nounwind uwtable
define internal i32 @gitmodules_cb(ptr noundef %0, ptr noundef %1, ptr noundef %2, ptr noundef %3) #0 {
  %5 = alloca ptr, align 8
  %6 = alloca ptr, align 8
  %7 = alloca ptr, align 8
  %8 = alloca ptr, align 8
  %9 = alloca ptr, align 8
  %10 = alloca %struct.parse_config_parameter, align 8
  store ptr %0, ptr %5, align 8, !tbaa !13
  store ptr %1, ptr %6, align 8, !tbaa !13
  store ptr %2, ptr %7, align 8, !tbaa !74
  store ptr %3, ptr %8, align 8, !tbaa !51
  call void @llvm.lifetime.start.p0(i64 8, ptr %9) #9
  %11 = load ptr, ptr %8, align 8, !tbaa !51
  store ptr %11, ptr %9, align 8, !tbaa !31
  call void @llvm.lifetime.start.p0(i64 32, ptr %10) #9
  %12 = load ptr, ptr %9, align 8, !tbaa !31
  %13 = getelementptr inbounds nuw %struct.repository, ptr %12, i32 0, i32 14
  %14 = load ptr, ptr %13, align 8, !tbaa !33
  %15 = getelementptr inbounds nuw %struct.parse_config_parameter, ptr %10, i32 0, i32 0
  store ptr %14, ptr %15, align 8, !tbaa !76
  %16 = getelementptr inbounds nuw %struct.parse_config_parameter, ptr %10, i32 0, i32 1
  store ptr null, ptr %16, align 8, !tbaa !79
  %17 = call ptr @null_oid()
  %18 = getelementptr inbounds nuw %struct.parse_config_parameter, ptr %10, i32 0, i32 2
  store ptr %17, ptr %18, align 8, !tbaa !80
  %19 = getelementptr inbounds nuw %struct.parse_config_parameter, ptr %10, i32 0, i32 3
  store i32 1, ptr %19, align 8, !tbaa !81
  %20 = load ptr, ptr %5, align 8, !tbaa !13
  %21 = load ptr, ptr %6, align 8, !tbaa !13
  %22 = load ptr, ptr %7, align 8, !tbaa !74
  %23 = call i32 @parse_config(ptr noundef %20, ptr noundef %21, ptr noundef %22, ptr noundef %10)
  call void @llvm.lifetime.end.p0(i64 32, ptr %10) #9
  call void @llvm.lifetime.end.p0(i64 8, ptr %9) #9
  ret i32 %23
}