; Function Attrs: nounwind uwtable
define internal range(i32 -1, 1) i32 @gitmodules_cb(ptr noundef %0, ptr noundef %1, ptr noundef readnone captures(none) %2, ptr noundef readonly captures(none) %3) #0 {
  %5 = alloca %struct.parse_config_parameter, align 8
  call void @llvm.lifetime.start.p0(i64 32, ptr nonnull %5) #15
  %6 = getelementptr inbounds nuw i8, ptr %3, i64 376
  %7 = load ptr, ptr %6, align 8, !tbaa !31
  store ptr %7, ptr %5, align 8, !tbaa !74
  %8 = getelementptr inbounds nuw i8, ptr %5, i64 8
  store ptr null, ptr %8, align 8, !tbaa !77
  %9 = tail call ptr @null_oid() #15
  %10 = getelementptr inbounds nuw i8, ptr %5, i64 16
  store ptr %9, ptr %10, align 8, !tbaa !78
  %11 = getelementptr inbounds nuw i8, ptr %5, i64 24
  store i32 1, ptr %11, align 8, !tbaa !79
  %12 = call i32 @parse_config(ptr noundef %0, ptr noundef %1, ptr poison, ptr noundef nonnull %5)
  call void @llvm.lifetime.end.p0(i64 32, ptr nonnull %5) #15
  ret i32 %12
}